target datalayout = "e-m:e-p270:32:32-p271:32:32-p272:64:64-i64:64-i128:128-f80:128-n8:16:32:64-S128"
target triple = "x86_64-pc-linux-gnu"

%"class.icu_77::RuleBasedTimeZone" = type <{ %"class.icu_77::BasicTimeZone", ptr, ptr, ptr, ptr, i8, [7 x i8] }>
%"class.icu_77::BasicTimeZone" = type { %"class.icu_77::TimeZone" }
%"class.icu_77::TimeZone" = type { %"class.icu_77::UObject", %"class.icu_77::UnicodeString" }
%"class.icu_77::UObject" = type { ptr }
%"class.icu_77::UnicodeString" = type { %"class.icu_77::Replaceable", %"union.icu_77::UnicodeString::StackBufferOrFields" }
%"class.icu_77::Replaceable" = type { %"class.icu_77::UObject" }
%"union.icu_77::UnicodeString::StackBufferOrFields" = type { %struct.anon.0, [32 x i8] }
%struct.anon.0 = type { i16, i32, i32, ptr }
%"class.icu_77::UVector" = type { %"class.icu_77::UObject", i32, i32, ptr, ptr, ptr }
%"class.std::type_info" = type { ptr, ptr }

; Function Attrs: mustprogress nounwind uwtable
define linkonce_odr noundef ptr @_ZNKSt9type_info4nameEv(ptr noundef nonnull align 8 dereferenceable(16) %0) #0 comdat align 2 {
  %2 = alloca ptr, align 8
  store ptr %0, ptr %2, align 8, !tbaa !56
  %3 = load ptr, ptr %2, align 8
  %4 = getelementptr inbounds nuw %"class.std::type_info", ptr %3, i32 0, i32 1
  %5 = load ptr, ptr %4, align 8, !tbaa !112
  %6 = getelementptr inbounds i8, ptr %5, i64 0
  %7 = load i8, ptr %6, align 1, !tbaa !43
  %8 = sext i8 %7 to i32
  %9 = icmp eq i32 %8, 42
  br i1 %9, label %10, label %14

10:                                               ; preds = %1
  %11 = getelementptr inbounds nuw %"class.std::type_info", ptr %3, i32 0, i32 1
  %12 = load ptr, ptr %11, align 8, !tbaa !112
  %13 = getelementptr inbounds i8, ptr %12, i64 1
  br label %17

14:                                               ; preds = %1
  %15 = getelementptr inbounds nuw %"class.std::type_info", ptr %3, i32 0, i32 1
  %16 = load ptr, ptr %15, align 8, !tbaa !112
  br label %17

17:                                               ; preds = %14, %10
  %18 = phi ptr [ %13, %10 ], [ %16, %14 ]
  ret ptr %18
}

; Function Attrs: inlinehint mustprogress nounwind uwtable
define linkonce_odr noundef i32 @_ZNK6icu_777UVector4sizeEv(ptr noundef nonnull align 8 dereferenceable(40) %0) #6 comdat align 2 {
  %2 = alloca ptr, align 8
  store ptr %0, ptr %2, align 8, !tbaa !28
  %3 = load ptr, ptr %2, align 8
  %4 = getelementptr inbounds nuw %"class.icu_77::UVector", ptr %3, i32 0, i32 1
  %5 = load i32, ptr %4, align 8, !tbaa !69
  ret i32 %5
}

; Function Attrs: inlinehint mustprogress nounwind uwtable
define linkonce_odr noundef zeroext i1 @_ZNKSt9type_infoeqERKS_(ptr noundef nonnull align 8 dereferenceable(16) %0, ptr noundef nonnull align 8 dereferenceable(16) %1) #6 comdat align 2 {
  %3 = alloca i1, align 1
  %4 = alloca ptr, align 8
  %5 = alloca ptr, align 8
  store ptr %0, ptr %4, align 8, !tbaa !56
  store ptr %1, ptr %5, align 8, !tbaa !56
  %6 = load ptr, ptr %4, align 8
  %7 = getelementptr inbounds nuw %"class.std::type_info", ptr %6, i32 0, i32 1
  %8 = load ptr, ptr %7, align 8, !tbaa !112
  %9 = load ptr, ptr %5, align 8, !tbaa !56
  %10 = getelementptr inbounds nuw %"class.std::type_info", ptr %9, i32 0, i32 1
  %11 = load ptr, ptr %10, align 8, !tbaa !112
  %12 = icmp eq ptr %8, %11
  br i1 %12, label %13, label %14

13:                                               ; preds = %2
  store i1 true, ptr %3, align 1
  br label %30

14:                                               ; preds = %2
  %15 = getelementptr inbounds nuw %"class.std::type_info", ptr %6, i32 0, i32 1
  %16 = load ptr, ptr %15, align 8, !tbaa !112
  %17 = getelementptr inbounds i8, ptr %16, i64 0
  %18 = load i8, ptr %17, align 1, !tbaa !43
  %19 = sext i8 %18 to i32
  %20 = icmp ne i32 %19, 42
  br i1 %20, label %21, label %28

21:                                               ; preds = %14
  %22 = getelementptr inbounds nuw %"class.std::type_info", ptr %6, i32 0, i32 1
  %23 = load ptr, ptr %22, align 8, !tbaa !112
  %24 = load ptr, ptr %5, align 8, !tbaa !56
  %25 = call noundef ptr @_ZNKSt9type_info4nameEv(ptr noundef nonnull align 8 dereferenceable(16) %24) #12
  %26 = call i32 @strcmp(ptr noundef %23, ptr noundef %25) #12
  %27 = icmp eq i32 %26, 0
  br label %28

28:                                               ; preds = %21, %14
  %29 = phi i1 [ false, %14 ], [ %27, %21 ]
  store i1 %29, ptr %3, align 1
  br label %30

30:                                               ; preds = %28, %13
  %31 = load i1, ptr %3, align 1
  ret i1 %31
}

; Function Attrs: mustprogress uwtable
define internal noundef signext i8 @_ZN6icu_77L12compareRulesEPNS_7UVectorES1_(ptr noundef %0, ptr noundef %1) #1 {
  %3 = alloca i8, align 1
  %4 = alloca ptr, align 8
  %5 = alloca ptr, align 8
  %6 = alloca i32, align 4
  %7 = alloca i32, align 4
  %8 = alloca i32, align 4
  %9 = alloca ptr, align 8
  %10 = alloca ptr, align 8
  store ptr %0, ptr %4, align 8, !tbaa !28
  store ptr %1, ptr %5, align 8, !tbaa !28
  %11 = load ptr, ptr %4, align 8, !tbaa !28
  %12 = icmp eq ptr %11, null
  br i1 %12, label %13, label %17

13:                                               ; preds = %2
  %14 = load ptr, ptr %5, align 8, !tbaa !28
  %15 = icmp eq ptr %14, null
  br i1 %15, label %16, label %17

16:                                               ; preds = %13
  store i8 1, ptr %3, align 1
  br label %64

17:                                               ; preds = %13, %2
  %18 = load ptr, ptr %4, align 8, !tbaa !28
  %19 = icmp eq ptr %18, null
  br i1 %19, label %23, label %20

20:                                               ; preds = %17
  %21 = load ptr, ptr %5, align 8, !tbaa !28
  %22 = icmp eq ptr %21, null
  br i1 %22, label %23, label %24

23:                                               ; preds = %20, %17
  store i8 0, ptr %3, align 1
  br label %64

24:                                               ; preds = %20
  br label %25

25:                                               ; preds = %24
  call void @llvm.lifetime.start.p0(i64 4, ptr %6) #12
  %26 = load ptr, ptr %4, align 8, !tbaa !28
  %27 = call noundef i32 @_ZNK6icu_777UVector4sizeEv(ptr noundef nonnull align 8 dereferenceable(40) %26)
  store i32 %27, ptr %6, align 4, !tbaa !29
  %28 = load i32, ptr %6, align 4, !tbaa !29
  %29 = load ptr, ptr %5, align 8, !tbaa !28
  %30 = call noundef i32 @_ZNK6icu_777UVector4sizeEv(ptr noundef nonnull align 8 dereferenceable(40) %29)
  %31 = icmp ne i32 %28, %30
  br i1 %31, label %32, label %33

32:                                               ; preds = %25
  store i8 0, ptr %3, align 1
  store i32 1, ptr %7, align 4
  br label %63

33:                                               ; preds = %25
  call void @llvm.lifetime.start.p0(i64 4, ptr %8) #12
  store i32 0, ptr %8, align 4, !tbaa !29
  br label %34

34:                                               ; preds = %57, %33
  %35 = load i32, ptr %8, align 4, !tbaa !29
  %36 = load i32, ptr %6, align 4, !tbaa !29
  %37 = icmp slt i32 %35, %36
  br i1 %37, label %39, label %38

38:                                               ; preds = %34
  store i32 2, ptr %7, align 4
  br label %60

39:                                               ; preds = %34
  call void @llvm.lifetime.start.p0(i64 8, ptr %9) #12
  %40 = load ptr, ptr %4, align 8, !tbaa !28
  %41 = load i32, ptr %8, align 4, !tbaa !29
  %42 = call noundef ptr @_ZNK6icu_777UVector9elementAtEi(ptr noundef nonnull align 8 dereferenceable(40) %40, i32 noundef %41)
  store ptr %42, ptr %9, align 8, !tbaa !34
  call void @llvm.lifetime.start.p0(i64 8, ptr %10) #12
  %43 = load ptr, ptr %5, align 8, !tbaa !28
  %44 = load i32, ptr %8, align 4, !tbaa !29
  %45 = call noundef ptr @_ZNK6icu_777UVector9elementAtEi(ptr noundef nonnull align 8 dereferenceable(40) %43, i32 noundef %44)
  store ptr %45, ptr %10, align 8, !tbaa !34
  %46 = load ptr, ptr %9, align 8, !tbaa !34
  %47 = load ptr, ptr %10, align 8, !tbaa !34
  %48 = load ptr, ptr %46, align 8, !tbaa !12
  %49 = getelementptr inbounds ptr, ptr %48, i64 5
  %50 = load ptr, ptr %49, align 8
  %51 = call noundef zeroext i1 %50(ptr noundef nonnull align 8 dereferenceable(80) %46, ptr noundef nonnull align 8 dereferenceable(80) %47)
  br i1 %51, label %52, label %53

52:                                               ; preds = %39
  store i8 0, ptr %3, align 1
  store i32 1, ptr %7, align 4
  br label %54

53:                                               ; preds = %39
  store i32 0, ptr %7, align 4
  br label %54

54:                                               ; preds = %53, %52
  call void @llvm.lifetime.end.p0(i64 8, ptr %10) #12
  call void @llvm.lifetime.end.p0(i64 8, ptr %9) #12
  %55 = load i32, ptr %7, align 4
  switch i32 %55, label %60 [
    i32 0, label %56
  ]

56:                                               ; preds = %54
  br label %57

57:                                               ; preds = %56
  %58 = load i32, ptr %8, align 4, !tbaa !29
  %59 = add nsw i32 %58, 1
  store i32 %59, ptr %8, align 4, !tbaa !29
  br label %34, !llvm.loop !58

60:                                               ; preds = %54, %38
  call void @llvm.lifetime.end.p0(i64 4, ptr %8) #12
  %61 = load i32, ptr %7, align 4
  switch i32 %61, label %63 [
    i32 2, label %62
  ]

62:                                               ; preds = %60
  store i8 1, ptr %3, align 1
  store i32 1, ptr %7, align 4
  br label %63

63:                                               ; preds = %62, %60, %32
  call void @llvm.lifetime.end.p0(i64 4, ptr %6) #12
  br label %64

64:                                               ; preds = %63, %23, %16
  %65 = load i8, ptr %3, align 1
  ret i8 %65
}

; Function Attrs: mustprogress nounwind uwtable
define linkonce_odr noundef zeroext i1 @_ZNKSt9type_infoneERKS_(ptr noundef nonnull align 8 dereferenceable(16) %0, ptr noundef nonnull align 8 dereferenceable(16) %1) #0 comdat align 2 {
  %3 = alloca ptr, align 8
  %4 = alloca ptr, align 8
  store ptr %0, ptr %3, align 8, !tbaa !56
  store ptr %1, ptr %4, align 8, !tbaa !56
  %5 = load ptr, ptr %3, align 8
  %6 = load ptr, ptr %4, align 8, !tbaa !56
  %7 = call noundef zeroext i1 @_ZNKSt9type_infoeqERKS_(ptr noundef nonnull align 8 dereferenceable(16) %5, ptr noundef nonnull align 8 dereferenceable(16) %6) #12
  %8 = xor i1 %7, true
  ret i1 %8
}

; Function Attrs: mustprogress uwtable
define noundef signext i8 @_ZNK6icu_7717RuleBasedTimeZone12hasSameRulesERKNS_8TimeZoneE(ptr noundef nonnull align 8 dereferenceable(105) %0, ptr noundef nonnull align 8 dereferenceable(72) %1) unnamed_addr #1 align 2 {
  %3 = alloca i8, align 1
  %4 = alloca ptr, align 8
  %5 = alloca ptr, align 8
  %6 = alloca ptr, align 8
  %7 = alloca i32, align 4
  store ptr %0, ptr %4, align 8, !tbaa !3
  store ptr %1, ptr %5, align 8, !tbaa !54
  %8 = load ptr, ptr %4, align 8
  %9 = load ptr, ptr %5, align 8, !tbaa !54
  %10 = icmp eq ptr %8, %9
  br i1 %10, label %11, label %12

11:                                               ; preds = %2
  store i8 1, ptr %3, align 1
  br label %56

12:                                               ; preds = %2
  %13 = icmp eq ptr %8, null
  br i1 %13, label %14, label %15

14:                                               ; preds = %12
  call void @__cxa_bad_typeid() #15
  unreachable

15:                                               ; preds = %12
  %16 = load ptr, ptr %8, align 8, !tbaa !12
  %17 = getelementptr inbounds ptr, ptr %16, i64 -1
  %18 = load ptr, ptr %17, align 8
  %19 = load ptr, ptr %5, align 8, !tbaa !54
  %20 = load ptr, ptr %19, align 8, !tbaa !12
  %21 = getelementptr inbounds ptr, ptr %20, i64 -1
  %22 = load ptr, ptr %21, align 8
  %23 = call noundef zeroext i1 @_ZNKSt9type_infoneERKS_(ptr noundef nonnull align 8 dereferenceable(16) %18, ptr noundef nonnull align 8 dereferenceable(16) %22) #12
  br i1 %23, label %24, label %25

24:                                               ; preds = %15
  store i8 0, ptr %3, align 1
  br label %56

25:                                               ; preds = %15
  call void @llvm.lifetime.start.p0(i64 8, ptr %6) #12
  %26 = load ptr, ptr %5, align 8, !tbaa !54
  store ptr %26, ptr %6, align 8, !tbaa !3
  %27 = getelementptr inbounds nuw %"class.icu_77::RuleBasedTimeZone", ptr %8, i32 0, i32 1
  %28 = load ptr, ptr %27, align 8, !tbaa !14
  %29 = load ptr, ptr %6, align 8, !tbaa !3
  %30 = getelementptr inbounds nuw %"class.icu_77::RuleBasedTimeZone", ptr %29, i32 0, i32 1
  %31 = load ptr, ptr %30, align 8, !tbaa !14
  %32 = load ptr, ptr %28, align 8, !tbaa !12
  %33 = getelementptr inbounds ptr, ptr %32, i64 5
  %34 = load ptr, ptr %33, align 8
  %35 = call noundef zeroext i1 %34(ptr noundef nonnull align 8 dereferenceable(80) %28, ptr noundef nonnull align 8 dereferenceable(80) %31)
  br i1 %35, label %36, label %37

36:                                               ; preds = %25
  store i8 0, ptr %3, align 1
  store i32 1, ptr %7, align 4
  br label %55

37:                                               ; preds = %25
  %38 = getelementptr inbounds nuw %"class.icu_77::RuleBasedTimeZone", ptr %8, i32 0, i32 2
  %39 = load ptr, ptr %38, align 8, !tbaa !22
  %40 = load ptr, ptr %6, align 8, !tbaa !3
  %41 = getelementptr inbounds nuw %"class.icu_77::RuleBasedTimeZone", ptr %40, i32 0, i32 2
  %42 = load ptr, ptr %41, align 8, !tbaa !22
  %43 = call noundef signext i8 @_ZN6icu_77L12compareRulesEPNS_7UVectorES1_(ptr noundef %39, ptr noundef %42)
  %44 = icmp ne i8 %43, 0
  br i1 %44, label %45, label %54

45:                                               ; preds = %37
  %46 = getelementptr inbounds nuw %"class.icu_77::RuleBasedTimeZone", ptr %8, i32 0, i32 3
  %47 = load ptr, ptr %46, align 8, !tbaa !23
  %48 = load ptr, ptr %6, align 8, !tbaa !3
  %49 = getelementptr inbounds nuw %"class.icu_77::RuleBasedTimeZone", ptr %48, i32 0, i32 3
  %50 = load ptr, ptr %49, align 8, !tbaa !23
  %51 = call noundef signext i8 @_ZN6icu_77L12compareRulesEPNS_7UVectorES1_(ptr noundef %47, ptr noundef %50)
  %52 = icmp ne i8 %51, 0
  br i1 %52, label %53, label %54

53:                                               ; preds = %45
  store i8 1, ptr %3, align 1
  store i32 1, ptr %7, align 4
  br label %55

54:                                               ; preds = %45, %37
  store i8 0, ptr %3, align 1
  store i32 1, ptr %7, align 4
  br label %55

55:                                               ; preds = %54, %53, %36
  call void @llvm.lifetime.end.p0(i64 8, ptr %6) #12
  br label %56

56:                                               ; preds = %55, %24, %11
  %57 = load i8, ptr %3, align 1
  ret i8 %57
}