; Function Attrs: mustprogress uwtable
define noundef signext range(i8 0, 2) i8 @_ZNK6icu_7717RuleBasedTimeZone12hasSameRulesERKNS_8TimeZoneE(ptr noundef nonnull readonly align 8 dereferenceable(105) %0, ptr noundef nonnull readonly align 8 dereferenceable(72) %1) unnamed_addr #1 align 2 {
  %3 = icmp eq ptr %0, %1
  br i1 %3, label %_ZN6icu_77L12compareRulesEPNS_7UVectorES1_.exit19, label %4

4:                                                ; preds = %2
  %5 = load ptr, ptr %0, align 8, !tbaa !3
  %6 = getelementptr inbounds i8, ptr %5, i64 -8
  %7 = load ptr, ptr %6, align 8
  %8 = load ptr, ptr %1, align 8, !tbaa !3
  %9 = getelementptr inbounds i8, ptr %8, i64 -8
  %10 = load ptr, ptr %9, align 8
  %11 = getelementptr inbounds nuw i8, ptr %7, i64 8
  %12 = load ptr, ptr %11, align 8, !tbaa !44
  %13 = getelementptr inbounds nuw i8, ptr %10, i64 8
  %14 = load ptr, ptr %13, align 8, !tbaa !44
  %15 = icmp eq ptr %12, %14
  br i1 %15, label %_ZNKSt9type_infoneERKS_.exit.thread21, label %16

16:                                               ; preds = %4
  %17 = load i8, ptr %12, align 1, !tbaa !31
  %.not.i.i = icmp eq i8 %17, 42
  br i1 %.not.i.i, label %_ZN6icu_77L12compareRulesEPNS_7UVectorES1_.exit19, label %_ZNKSt9type_infoneERKS_.exit

_ZNKSt9type_infoneERKS_.exit:                     ; preds = %16
  %18 = load i8, ptr %14, align 1, !tbaa !31
  %19 = icmp eq i8 %18, 42
  %.idx.i.i.i = zext i1 %19 to i64
  %20 = getelementptr inbounds nuw i8, ptr %14, i64 %.idx.i.i.i
  %21 = tail call i32 @strcmp(ptr noundef nonnull dereferenceable(1) %12, ptr noundef nonnull dereferenceable(1) %20) #14
  %.not = icmp eq i32 %21, 0
  br i1 %.not, label %_ZNKSt9type_infoneERKS_.exit.thread21, label %_ZN6icu_77L12compareRulesEPNS_7UVectorES1_.exit19

_ZNKSt9type_infoneERKS_.exit.thread21:            ; preds = %4, %_ZNKSt9type_infoneERKS_.exit
  %22 = getelementptr inbounds nuw i8, ptr %0, i64 72
  %23 = load ptr, ptr %22, align 8, !tbaa !6
  %24 = getelementptr inbounds nuw i8, ptr %1, i64 72
  %25 = load ptr, ptr %24, align 8, !tbaa !6
  %26 = load ptr, ptr %23, align 8, !tbaa !3
  %27 = getelementptr inbounds nuw i8, ptr %26, i64 40
  %28 = load ptr, ptr %27, align 8
  %29 = tail call noundef zeroext i1 %28(ptr noundef nonnull align 8 dereferenceable(80) %23, ptr noundef nonnull align 8 dereferenceable(80) %25)
  br i1 %29, label %_ZN6icu_77L12compareRulesEPNS_7UVectorES1_.exit19, label %30

30:                                               ; preds = %_ZNKSt9type_infoneERKS_.exit.thread21
  %31 = getelementptr inbounds nuw i8, ptr %0, i64 80
  %32 = load ptr, ptr %31, align 8, !tbaa !19
  %33 = getelementptr inbounds nuw i8, ptr %1, i64 80
  %34 = load ptr, ptr %33, align 8, !tbaa !19
  %35 = icmp eq ptr %32, null
  %36 = icmp eq ptr %34, null
  %or.cond.i = and i1 %35, %36
  br i1 %or.cond.i, label %_ZN6icu_77L12compareRulesEPNS_7UVectorES1_.exit, label %37

37:                                               ; preds = %30
  %or.cond4.i = or i1 %35, %36
  br i1 %or.cond4.i, label %_ZN6icu_77L12compareRulesEPNS_7UVectorES1_.exit19, label %38

38:                                               ; preds = %37
  %39 = getelementptr inbounds nuw i8, ptr %32, i64 8
  %40 = load i32, ptr %39, align 8, !tbaa !23
  %41 = getelementptr inbounds nuw i8, ptr %34, i64 8
  %42 = load i32, ptr %41, align 8, !tbaa !23
  %.not.i = icmp eq i32 %40, %42
  br i1 %.not.i, label %.preheader.i, label %_ZN6icu_77L12compareRulesEPNS_7UVectorES1_.exit19

.preheader.i:                                     ; preds = %38
  %.not2829.i = icmp slt i32 %40, 1
  br i1 %.not2829.i, label %_ZN6icu_77L12compareRulesEPNS_7UVectorES1_.exit, label %.lr.ph.i

43:                                               ; preds = %.lr.ph.i
  %44 = add nuw nsw i32 %.02430.i, 1
  %exitcond.not.i = icmp eq i32 %44, %40
  br i1 %exitcond.not.i, label %_ZN6icu_77L12compareRulesEPNS_7UVectorES1_.exit, label %.lr.ph.i, !llvm.loop !47

.lr.ph.i:                                         ; preds = %.preheader.i, %43
  %.02430.i = phi i32 [ %44, %43 ], [ 0, %.preheader.i ]
  %45 = tail call noundef ptr @_ZNK6icu_777UVector9elementAtEi(ptr noundef nonnull align 8 dereferenceable(40) %32, i32 noundef %.02430.i)
  %46 = tail call noundef ptr @_ZNK6icu_777UVector9elementAtEi(ptr noundef nonnull align 8 dereferenceable(40) %34, i32 noundef %.02430.i)
  %47 = load ptr, ptr %45, align 8, !tbaa !3
  %48 = getelementptr inbounds nuw i8, ptr %47, i64 40
  %49 = load ptr, ptr %48, align 8
  %50 = tail call noundef zeroext i1 %49(ptr noundef nonnull align 8 dereferenceable(80) %45, ptr noundef nonnull align 8 dereferenceable(80) %46)
  br i1 %50, label %_ZN6icu_77L12compareRulesEPNS_7UVectorES1_.exit19, label %43

_ZN6icu_77L12compareRulesEPNS_7UVectorES1_.exit:  ; preds = %43, %.preheader.i, %30
  %51 = getelementptr inbounds nuw i8, ptr %0, i64 88
  %52 = load ptr, ptr %51, align 8, !tbaa !20
  %53 = getelementptr inbounds nuw i8, ptr %1, i64 88
  %54 = load ptr, ptr %53, align 8, !tbaa !20
  %55 = icmp eq ptr %52, null
  %56 = icmp eq ptr %54, null
  %or.cond.i10 = and i1 %55, %56
  br i1 %or.cond.i10, label %_ZN6icu_77L12compareRulesEPNS_7UVectorES1_.exit19, label %57

57:                                               ; preds = %_ZN6icu_77L12compareRulesEPNS_7UVectorES1_.exit
  %or.cond4.i11 = or i1 %55, %56
  br i1 %or.cond4.i11, label %_ZN6icu_77L12compareRulesEPNS_7UVectorES1_.exit19, label %58

58:                                               ; preds = %57
  %59 = getelementptr inbounds nuw i8, ptr %52, i64 8
  %60 = load i32, ptr %59, align 8, !tbaa !23
  %61 = getelementptr inbounds nuw i8, ptr %54, i64 8
  %62 = load i32, ptr %61, align 8, !tbaa !23
  %.not.i12 = icmp eq i32 %60, %62
  br i1 %.not.i12, label %.preheader.i14, label %_ZN6icu_77L12compareRulesEPNS_7UVectorES1_.exit19

.preheader.i14:                                   ; preds = %58
  %.not2829.i15 = icmp slt i32 %60, 1
  br i1 %.not2829.i15, label %_ZN6icu_77L12compareRulesEPNS_7UVectorES1_.exit19, label %.lr.ph.i16

63:                                               ; preds = %.lr.ph.i16
  %64 = add nuw nsw i32 %.02430.i17, 1
  %exitcond.not.i18 = icmp eq i32 %64, %60
  br i1 %exitcond.not.i18, label %_ZN6icu_77L12compareRulesEPNS_7UVectorES1_.exit19, label %.lr.ph.i16, !llvm.loop !47

.lr.ph.i16:                                       ; preds = %.preheader.i14, %63
  %.02430.i17 = phi i32 [ %64, %63 ], [ 0, %.preheader.i14 ]
  %65 = tail call noundef ptr @_ZNK6icu_777UVector9elementAtEi(ptr noundef nonnull align 8 dereferenceable(40) %52, i32 noundef %.02430.i17)
  %66 = tail call noundef ptr @_ZNK6icu_777UVector9elementAtEi(ptr noundef nonnull align 8 dereferenceable(40) %54, i32 noundef %.02430.i17)
  %67 = load ptr, ptr %65, align 8, !tbaa !3
  %68 = getelementptr inbounds nuw i8, ptr %67, i64 40
  %69 = load ptr, ptr %68, align 8
  %70 = tail call noundef zeroext i1 %69(ptr noundef nonnull align 8 dereferenceable(80) %65, ptr noundef nonnull align 8 dereferenceable(80) %66)
  br i1 %70, label %_ZN6icu_77L12compareRulesEPNS_7UVectorES1_.exit19, label %63

_ZN6icu_77L12compareRulesEPNS_7UVectorES1_.exit19: ; preds = %.lr.ph.i, %.lr.ph.i16, %63, %58, %57, %38, %37, %16, %.preheader.i14, %_ZN6icu_77L12compareRulesEPNS_7UVectorES1_.exit, %_ZNKSt9type_infoneERKS_.exit.thread21, %_ZNKSt9type_infoneERKS_.exit, %2
  %.0 = phi i8 [ 1, %2 ], [ 0, %_ZNKSt9type_infoneERKS_.exit ], [ 0, %_ZNKSt9type_infoneERKS_.exit.thread21 ], [ 1, %_ZN6icu_77L12compareRulesEPNS_7UVectorES1_.exit ], [ 1, %.preheader.i14 ], [ 0, %16 ], [ 0, %37 ], [ 0, %38 ], [ 0, %57 ], [ 0, %58 ], [ 0, %.lr.ph.i16 ], [ 1, %63 ], [ 0, %.lr.ph.i ]
  ret i8 %.0
}